target datalayout = "e-m:e-p270:32:32-p271:32:32-p272:64:64-i64:64-i128:128-f80:128-n8:16:32:64-S128"
target triple = "x86_64-pc-linux-gnu"

%"class.cv::Point_" = type { double, double }
%"class.cv::Size_" = type { i32, i32 }

@dem_bl = hidden global %"class.cv::Point_" zeroinitializer, align 8
@dem_tr = hidden global %"class.cv::Point_" zeroinitializer, align 8

; Function Attrs: inlinehint mustprogress nounwind uwtable
define linkonce_odr hidden void @_ZN2cv6Point_IdEC2Ev(ptr noundef nonnull align 8 dereferenceable(16) %0) unnamed_addr #4 comdat align 2 {
  %2 = alloca ptr, align 8
  store ptr %0, ptr %2, align 8, !tbaa !4
  %3 = load ptr, ptr %2, align 8
  %4 = getelementptr inbounds nuw %"class.cv::Point_", ptr %3, i32 0, i32 0
  store double 0.000000e+00, ptr %4, align 8, !tbaa !11
  %5 = getelementptr inbounds nuw %"class.cv::Point_", ptr %3, i32 0, i32 1
  store double 0.000000e+00, ptr %5, align 8, !tbaa !13
  ret void
}

; Function Attrs: mustprogress uwtable
define hidden { double, double } @_Z9world2demRKN2cv6Point_IdEERKNS_5Size_IiEE(ptr noundef nonnull align 8 dereferenceable(16) %0, ptr noundef nonnull align 4 dereferenceable(8) %1) #6 {
  %3 = alloca %"class.cv::Point_", align 8
  %4 = alloca ptr, align 8
  %5 = alloca ptr, align 8
  %6 = alloca double, align 8
  %7 = alloca double, align 8
  store ptr %0, ptr %4, align 8, !tbaa !4
  store ptr %1, ptr %5, align 8, !tbaa !36
  call void @llvm.lifetime.start.p0(i64 8, ptr %6) #3
  %8 = load double, ptr @dem_tr, align 8, !tbaa !11
  %9 = load ptr, ptr %4, align 8, !tbaa !4
  %10 = getelementptr inbounds nuw %"class.cv::Point_", ptr %9, i32 0, i32 0
  %11 = load double, ptr %10, align 8, !tbaa !11
  %12 = fsub double %8, %11
  %13 = load double, ptr @dem_tr, align 8, !tbaa !11
  %14 = load double, ptr @dem_bl, align 8, !tbaa !11
  %15 = fsub double %13, %14
  %16 = fdiv double %12, %15
  store double %16, ptr %6, align 8, !tbaa !9
  call void @llvm.lifetime.start.p0(i64 8, ptr %7) #3
  %17 = load double, ptr getelementptr inbounds nuw (%"class.cv::Point_", ptr @dem_tr, i32 0, i32 1), align 8, !tbaa !13
  %18 = load ptr, ptr %4, align 8, !tbaa !4
  %19 = getelementptr inbounds nuw %"class.cv::Point_", ptr %18, i32 0, i32 1
  %20 = load double, ptr %19, align 8, !tbaa !13
  %21 = fsub double %17, %20
  %22 = load double, ptr getelementptr inbounds nuw (%"class.cv::Point_", ptr @dem_tr, i32 0, i32 1), align 8, !tbaa !13
  %23 = load double, ptr getelementptr inbounds nuw (%"class.cv::Point_", ptr @dem_bl, i32 0, i32 1), align 8, !tbaa !13
  %24 = fsub double %22, %23
  %25 = fdiv double %21, %24
  %26 = fsub double 1.000000e+00, %25
  store double %26, ptr %7, align 8, !tbaa !9
  call void @_ZN2cv6Point_IdEC2Ev(ptr noundef nonnull align 8 dereferenceable(16) %3)
  %27 = load double, ptr %6, align 8, !tbaa !9
  %28 = load ptr, ptr %5, align 8, !tbaa !36
  %29 = getelementptr inbounds nuw %"class.cv::Size_", ptr %28, i32 0, i32 0
  %30 = load i32, ptr %29, align 4, !tbaa !38
  %31 = sitofp i32 %30 to double
  %32 = fmul double %27, %31
  %33 = getelementptr inbounds nuw %"class.cv::Point_", ptr %3, i32 0, i32 0
  store double %32, ptr %33, align 8, !tbaa !11
  %34 = load double, ptr %7, align 8, !tbaa !9
  %35 = load ptr, ptr %5, align 8, !tbaa !36
  %36 = getelementptr inbounds nuw %"class.cv::Size_", ptr %35, i32 0, i32 1
  %37 = load i32, ptr %36, align 4, !tbaa !40
  %38 = sitofp i32 %37 to double
  %39 = fmul double %34, %38
  %40 = getelementptr inbounds nuw %"class.cv::Point_", ptr %3, i32 0, i32 1
  store double %39, ptr %40, align 8, !tbaa !13
  call void @llvm.lifetime.end.p0(i64 8, ptr %7) #3
  call void @llvm.lifetime.end.p0(i64 8, ptr %6) #3
  %41 = load { double, double }, ptr %3, align 8
  ret { double, double } %41
}