; Function Attrs: mustprogress nofree norecurse nosync nounwind willreturn memory(read, inaccessiblemem: none) uwtable
define hidden { double, double } @_Z9world2demRKN2cv6Point_IdEERKNS_5Size_IiEE(ptr noundef nonnull readonly align 8 captures(none) dereferenceable(16) %0, ptr noundef nonnull readonly align 4 captures(none) dereferenceable(8) %1) local_unnamed_addr #8 {
  %3 = load double, ptr @dem_tr, align 8, !tbaa !12
  %4 = load double, ptr %0, align 8, !tbaa !12
  %5 = fsub double %3, %4
  %6 = load double, ptr @dem_bl, align 8, !tbaa !12
  %7 = fsub double %3, %6
  %8 = fdiv double %5, %7
  %9 = load double, ptr getelementptr inbounds nuw (i8, ptr @dem_tr, i64 8), align 8, !tbaa !14
  %10 = getelementptr inbounds nuw i8, ptr %0, i64 8
  %11 = load double, ptr %10, align 8, !tbaa !14
  %12 = fsub double %9, %11
  %13 = load double, ptr getelementptr inbounds nuw (i8, ptr @dem_bl, i64 8), align 8, !tbaa !14
  %14 = fsub double %9, %13
  %15 = fdiv double %12, %14
  %16 = fsub double 1.000000e+00, %15
  %17 = load i32, ptr %1, align 4, !tbaa !27
  %18 = sitofp i32 %17 to double
  %19 = fmul double %8, %18
  %20 = getelementptr inbounds nuw i8, ptr %1, i64 4
  %21 = load i32, ptr %20, align 4, !tbaa !30
  %22 = sitofp i32 %21 to double
  %23 = fmul double %16, %22
  %.fca.0.insert = insertvalue { double, double } poison, double %19, 0
  %.fca.1.insert = insertvalue { double, double } %.fca.0.insert, double %23, 1
  ret { double, double } %.fca.1.insert
}